target datalayout = "e-m:e-p270:32:32-p271:32:32-p272:64:64-i64:64-i128:128-f80:128-n8:16:32:64-S128"
target triple = "x86_64-unknown-linux-gnu"

%"class.std::__cxx11::basic_string" = type { %"struct.std::__cxx11::basic_string<char>::_Alloc_hider", i64, %union.anon }
%"struct.std::__cxx11::basic_string<char>::_Alloc_hider" = type { ptr }
%union.anon = type { i64, [8 x i8] }

@.str = private unnamed_addr constant [6 x i8] c"&#42;\00", align 1
@.str.1 = private unnamed_addr constant [6 x i8] c"&#47;\00", align 1
@.str.2 = private unnamed_addr constant [6 x i8] c"&#64;\00", align 1
@.str.3 = private unnamed_addr constant [5 x i8] c"&lt;\00", align 1
@.str.4 = private unnamed_addr constant [5 x i8] c"&gt;\00", align 1
@.str.5 = private unnamed_addr constant [6 x i8] c"&amp;\00", align 1
@.str.6 = private unnamed_addr constant [6 x i8] c"&#92;\00", align 1

; Function Attrs: mustprogress uwtable
define void @_ZN6google8protobuf8compiler4java13EscapeJavadocERKNSt7__cxx1112basic_stringIcSt11char_traitsIcESaIcEEE(ptr noalias sret(%"class.std::__cxx11::basic_string") align 8 %agg.result, ptr noundef nonnull align 8 dereferenceable(32) %input) #4 personality ptr @__gxx_personality_v0 {
entry:
  %result.ptr = alloca ptr, align 8
  %input.addr = alloca ptr, align 8
  %nrvo = alloca i1, align 1
  %exn.slot = alloca ptr, align 8
  %ehselector.slot = alloca i32, align 4
  %prev = alloca i8, align 1
  %i = alloca i64, align 8
  %c = alloca i8, align 1
  store ptr %agg.result, ptr %result.ptr, align 8
  store ptr %input, ptr %input.addr, align 8
  store i1 false, ptr %nrvo, align 1
  call void @_ZNSt7__cxx1112basic_stringIcSt11char_traitsIcESaIcEEC1Ev(ptr noundef nonnull align 8 dereferenceable(32) %agg.result) #3
  %0 = load ptr, ptr %input.addr, align 8
  %call = call noundef i64 @_ZNKSt7__cxx1112basic_stringIcSt11char_traitsIcESaIcEE4sizeEv(ptr noundef nonnull align 8 dereferenceable(32) %0) #3
  %mul = mul i64 %call, 2
  invoke void @_ZNSt7__cxx1112basic_stringIcSt11char_traitsIcESaIcEE7reserveEm(ptr noundef nonnull align 8 dereferenceable(32) %agg.result, i64 noundef %mul)
          to label %invoke.cont unwind label %lpad

invoke.cont:                                      ; preds = %entry
  store i8 42, ptr %prev, align 1
  store i64 0, ptr %i, align 8
  br label %for.cond

for.cond:                                         ; preds = %for.inc, %invoke.cont
  %1 = load i64, ptr %i, align 8
  %2 = load ptr, ptr %input.addr, align 8
  %call1 = call noundef i64 @_ZNKSt7__cxx1112basic_stringIcSt11char_traitsIcESaIcEE4sizeEv(ptr noundef nonnull align 8 dereferenceable(32) %2) #3
  %cmp = icmp ult i64 %1, %call1
  br i1 %cmp, label %for.body, label %for.end

for.body:                                         ; preds = %for.cond
  %3 = load ptr, ptr %input.addr, align 8
  %4 = load i64, ptr %i, align 8
  %call2 = call noundef nonnull align 1 dereferenceable(1) ptr @_ZNKSt7__cxx1112basic_stringIcSt11char_traitsIcESaIcEEixEm(ptr noundef nonnull align 8 dereferenceable(32) %3, i64 noundef %4) #3
  %5 = load i8, ptr %call2, align 1
  store i8 %5, ptr %c, align 1
  %6 = load i8, ptr %c, align 1
  %conv = sext i8 %6 to i32
  switch i32 %conv, label %sw.default [
    i32 42, label %sw.bb
    i32 47, label %sw.bb8
    i32 64, label %sw.bb17
    i32 60, label %sw.bb20
    i32 62, label %sw.bb23
    i32 38, label %sw.bb26
    i32 92, label %sw.bb29
  ]

lpad:                                             ; preds = %sw.default, %sw.bb29, %sw.bb26, %sw.bb23, %sw.bb20, %sw.bb17, %if.else14, %if.then11, %if.else, %if.then, %entry
  %7 = landingpad { ptr, i32 }
          cleanup
  %8 = extractvalue { ptr, i32 } %7, 0
  store ptr %8, ptr %exn.slot, align 8
  %9 = extractvalue { ptr, i32 } %7, 1
  store i32 %9, ptr %ehselector.slot, align 4
  call void @_ZNSt7__cxx1112basic_stringIcSt11char_traitsIcESaIcEED1Ev(ptr noundef nonnull align 8 dereferenceable(32) %agg.result) #3
  br label %eh.resume

sw.bb:                                            ; preds = %for.body
  %10 = load i8, ptr %prev, align 1
  %conv3 = sext i8 %10 to i32
  %cmp4 = icmp eq i32 %conv3, 47
  br i1 %cmp4, label %if.then, label %if.else

if.then:                                          ; preds = %sw.bb
  %call6 = invoke noundef nonnull align 8 dereferenceable(32) ptr @_ZNSt7__cxx1112basic_stringIcSt11char_traitsIcESaIcEE6appendEPKc(ptr noundef nonnull align 8 dereferenceable(32) %agg.result, ptr noundef @.str)
          to label %invoke.cont5 unwind label %lpad

invoke.cont5:                                     ; preds = %if.then
  br label %if.end

if.else:                                          ; preds = %sw.bb
  %11 = load i8, ptr %c, align 1
  invoke void @_ZNSt7__cxx1112basic_stringIcSt11char_traitsIcESaIcEE9push_backEc(ptr noundef nonnull align 8 dereferenceable(32) %agg.result, i8 noundef signext %11)
          to label %invoke.cont7 unwind label %lpad

invoke.cont7:                                     ; preds = %if.else
  br label %if.end

if.end:                                           ; preds = %invoke.cont7, %invoke.cont5
  br label %sw.epilog

sw.bb8:                                           ; preds = %for.body
  %12 = load i8, ptr %prev, align 1
  %conv9 = sext i8 %12 to i32
  %cmp10 = icmp eq i32 %conv9, 42
  br i1 %cmp10, label %if.then11, label %if.else14

if.then11:                                        ; preds = %sw.bb8
  %call13 = invoke noundef nonnull align 8 dereferenceable(32) ptr @_ZNSt7__cxx1112basic_stringIcSt11char_traitsIcESaIcEE6appendEPKc(ptr noundef nonnull align 8 dereferenceable(32) %agg.result, ptr noundef @.str.1)
          to label %invoke.cont12 unwind label %lpad

invoke.cont12:                                    ; preds = %if.then11
  br label %if.end16

if.else14:                                        ; preds = %sw.bb8
  %13 = load i8, ptr %c, align 1
  invoke void @_ZNSt7__cxx1112basic_stringIcSt11char_traitsIcESaIcEE9push_backEc(ptr noundef nonnull align 8 dereferenceable(32) %agg.result, i8 noundef signext %13)
          to label %invoke.cont15 unwind label %lpad

invoke.cont15:                                    ; preds = %if.else14
  br label %if.end16

if.end16:                                         ; preds = %invoke.cont15, %invoke.cont12
  br label %sw.epilog

sw.bb17:                                          ; preds = %for.body
  %call19 = invoke noundef nonnull align 8 dereferenceable(32) ptr @_ZNSt7__cxx1112basic_stringIcSt11char_traitsIcESaIcEE6appendEPKc(ptr noundef nonnull align 8 dereferenceable(32) %agg.result, ptr noundef @.str.2)
          to label %invoke.cont18 unwind label %lpad

invoke.cont18:                                    ; preds = %sw.bb17
  br label %sw.epilog

sw.bb20:                                          ; preds = %for.body
  %call22 = invoke noundef nonnull align 8 dereferenceable(32) ptr @_ZNSt7__cxx1112basic_stringIcSt11char_traitsIcESaIcEE6appendEPKc(ptr noundef nonnull align 8 dereferenceable(32) %agg.result, ptr noundef @.str.3)
          to label %invoke.cont21 unwind label %lpad

invoke.cont21:                                    ; preds = %sw.bb20
  br label %sw.epilog

sw.bb23:                                          ; preds = %for.body
  %call25 = invoke noundef nonnull align 8 dereferenceable(32) ptr @_ZNSt7__cxx1112basic_stringIcSt11char_traitsIcESaIcEE6appendEPKc(ptr noundef nonnull align 8 dereferenceable(32) %agg.result, ptr noundef @.str.4)
          to label %invoke.cont24 unwind label %lpad

invoke.cont24:                                    ; preds = %sw.bb23
  br label %sw.epilog

sw.bb26:                                          ; preds = %for.body
  %call28 = invoke noundef nonnull align 8 dereferenceable(32) ptr @_ZNSt7__cxx1112basic_stringIcSt11char_traitsIcESaIcEE6appendEPKc(ptr noundef nonnull align 8 dereferenceable(32) %agg.result, ptr noundef @.str.5)
          to label %invoke.cont27 unwind label %lpad

invoke.cont27:                                    ; preds = %sw.bb26
  br label %sw.epilog

sw.bb29:                                          ; preds = %for.body
  %call31 = invoke noundef nonnull align 8 dereferenceable(32) ptr @_ZNSt7__cxx1112basic_stringIcSt11char_traitsIcESaIcEE6appendEPKc(ptr noundef nonnull align 8 dereferenceable(32) %agg.result, ptr noundef @.str.6)
          to label %invoke.cont30 unwind label %lpad

invoke.cont30:                                    ; preds = %sw.bb29
  br label %sw.epilog

sw.default:                                       ; preds = %for.body
  %14 = load i8, ptr %c, align 1
  invoke void @_ZNSt7__cxx1112basic_stringIcSt11char_traitsIcESaIcEE9push_backEc(ptr noundef nonnull align 8 dereferenceable(32) %agg.result, i8 noundef signext %14)
          to label %invoke.cont32 unwind label %lpad

invoke.cont32:                                    ; preds = %sw.default
  br label %sw.epilog

sw.epilog:                                        ; preds = %invoke.cont32, %invoke.cont30, %invoke.cont27, %invoke.cont24, %invoke.cont21, %invoke.cont18, %if.end16, %if.end
  %15 = load i8, ptr %c, align 1
  store i8 %15, ptr %prev, align 1
  br label %for.inc

for.inc:                                          ; preds = %sw.epilog
  %16 = load i64, ptr %i, align 8
  %inc = add i64 %16, 1
  store i64 %inc, ptr %i, align 8
  br label %for.cond, !llvm.loop !4

for.end:                                          ; preds = %for.cond
  store i1 true, ptr %nrvo, align 1
  %nrvo.val = load i1, ptr %nrvo, align 1
  br i1 %nrvo.val, label %nrvo.skipdtor, label %nrvo.unused

nrvo.unused:                                      ; preds = %for.end
  call void @_ZNSt7__cxx1112basic_stringIcSt11char_traitsIcESaIcEED1Ev(ptr noundef nonnull align 8 dereferenceable(32) %agg.result) #3
  br label %nrvo.skipdtor

nrvo.skipdtor:                                    ; preds = %nrvo.unused, %for.end
  ret void

eh.resume:                                        ; preds = %lpad
  %exn = load ptr, ptr %exn.slot, align 8
  %sel = load i32, ptr %ehselector.slot, align 4
  %lpad.val = insertvalue { ptr, i32 } poison, ptr %exn, 0
  %lpad.val33 = insertvalue { ptr, i32 } %lpad.val, i32 %sel, 1
  resume { ptr, i32 } %lpad.val33
}