; Function Attrs: mustprogress uwtable
define void @_ZN6google8protobuf8compiler4java13EscapeJavadocERKNSt7__cxx1112basic_stringIcSt11char_traitsIcESaIcEEE(ptr noalias nonnull sret(%"class.std::__cxx11::basic_string") align 8 %agg.result, ptr noundef nonnull align 8 dereferenceable(32) %input) local_unnamed_addr #3 personality ptr @__gxx_personality_v0 {
entry:
  tail call void @_ZNSt7__cxx1112basic_stringIcSt11char_traitsIcESaIcEEC1Ev(ptr noundef nonnull align 8 dereferenceable(32) %agg.result) #22
  %call = tail call noundef i64 @_ZNKSt7__cxx1112basic_stringIcSt11char_traitsIcESaIcEE4sizeEv(ptr noundef nonnull align 8 dereferenceable(32) %input) #22
  %mul = shl i64 %call, 1
  invoke void @_ZNSt7__cxx1112basic_stringIcSt11char_traitsIcESaIcEE7reserveEm(ptr noundef nonnull align 8 dereferenceable(32) %agg.result, i64 noundef %mul)
          to label %for.cond.preheader unwind label %lpad.loopexit.split-lp

for.cond.preheader:                               ; preds = %entry
  %call112 = tail call noundef i64 @_ZNKSt7__cxx1112basic_stringIcSt11char_traitsIcESaIcEE4sizeEv(ptr noundef nonnull align 8 dereferenceable(32) %input) #22
  %cmp13.not = icmp eq i64 %call112, 0
  br i1 %cmp13.not, label %nrvo.skipdtor, label %for.body

for.body:                                         ; preds = %for.cond.preheader, %sw.epilog
  %i.015 = phi i64 [ %inc, %sw.epilog ], [ 0, %for.cond.preheader ]
  %prev.014 = phi i8 [ %0, %sw.epilog ], [ 42, %for.cond.preheader ]
  %call2 = tail call noundef nonnull align 1 dereferenceable(1) ptr @_ZNKSt7__cxx1112basic_stringIcSt11char_traitsIcESaIcEEixEm(ptr noundef nonnull align 8 dereferenceable(32) %input, i64 noundef %i.015) #22
  %0 = load i8, ptr %call2, align 1
  switch i8 %0, label %if.else.invoke [
    i8 42, label %sw.bb
    i8 47, label %sw.bb8
    i8 64, label %if.then.invoke
    i8 60, label %sw.bb20
    i8 62, label %sw.bb23
    i8 38, label %sw.bb26
    i8 92, label %sw.bb29
  ]

lpad.loopexit:                                    ; preds = %if.else.invoke, %if.then.invoke
  %lpad.loopexit10 = landingpad { ptr, i32 }
          cleanup
  br label %lpad

lpad.loopexit.split-lp:                           ; preds = %entry
  %lpad.loopexit.split-lp11 = landingpad { ptr, i32 }
          cleanup
  br label %lpad

lpad:                                             ; preds = %lpad.loopexit.split-lp, %lpad.loopexit
  %lpad.phi = phi { ptr, i32 } [ %lpad.loopexit10, %lpad.loopexit ], [ %lpad.loopexit.split-lp11, %lpad.loopexit.split-lp ]
  tail call void @_ZNSt7__cxx1112basic_stringIcSt11char_traitsIcESaIcEED1Ev(ptr noundef nonnull align 8 dereferenceable(32) %agg.result) #22
  resume { ptr, i32 } %lpad.phi

sw.bb:                                            ; preds = %for.body
  %cmp4 = icmp eq i8 %prev.014, 47
  br i1 %cmp4, label %if.then.invoke, label %if.else.invoke

if.then.invoke:                                   ; preds = %for.body, %sw.bb8, %sw.bb, %sw.bb29, %sw.bb26, %sw.bb23, %sw.bb20
  %1 = phi ptr [ @.str.3, %sw.bb20 ], [ @.str.4, %sw.bb23 ], [ @.str.5, %sw.bb26 ], [ @.str.6, %sw.bb29 ], [ @.str, %sw.bb ], [ @.str.1, %sw.bb8 ], [ @.str.2, %for.body ]
  %2 = invoke noundef nonnull align 8 dereferenceable(32) ptr @_ZNSt7__cxx1112basic_stringIcSt11char_traitsIcESaIcEE6appendEPKc(ptr noundef nonnull align 8 dereferenceable(32) %agg.result, ptr noundef nonnull %1)
          to label %sw.epilog unwind label %lpad.loopexit

if.else.invoke:                                   ; preds = %for.body, %sw.bb8, %sw.bb
  %3 = phi i8 [ 42, %sw.bb ], [ 47, %sw.bb8 ], [ %0, %for.body ]
  invoke void @_ZNSt7__cxx1112basic_stringIcSt11char_traitsIcESaIcEE9push_backEc(ptr noundef nonnull align 8 dereferenceable(32) %agg.result, i8 noundef signext %3)
          to label %sw.epilog unwind label %lpad.loopexit

sw.bb8:                                           ; preds = %for.body
  %cmp10 = icmp eq i8 %prev.014, 42
  br i1 %cmp10, label %if.then.invoke, label %if.else.invoke

sw.bb20:                                          ; preds = %for.body
  br label %if.then.invoke

sw.bb23:                                          ; preds = %for.body
  br label %if.then.invoke

sw.bb26:                                          ; preds = %for.body
  br label %if.then.invoke

sw.bb29:                                          ; preds = %for.body
  br label %if.then.invoke

sw.epilog:                                        ; preds = %if.else.invoke, %if.then.invoke
  %inc = add nuw i64 %i.015, 1
  %call1 = tail call noundef i64 @_ZNKSt7__cxx1112basic_stringIcSt11char_traitsIcESaIcEE4sizeEv(ptr noundef nonnull align 8 dereferenceable(32) %input) #22
  %cmp = icmp ult i64 %inc, %call1
  br i1 %cmp, label %for.body, label %nrvo.skipdtor, !llvm.loop !4

nrvo.skipdtor:                                    ; preds = %sw.epilog, %for.cond.preheader
  ret void
}